; Function Attrs: mustprogress nofree norecurse nosync nounwind willreturn memory(argmem: write) uwtable
define void @_ZN16htif_hexwriter_tC2Emmm(ptr noundef nonnull align 8 dereferenceable(80) %0, i64 noundef %1, i64 noundef %2, i64 noundef %3) unnamed_addr #3 align 2 personality ptr @__gxx_personality_v0 {
  store ptr getelementptr inbounds ({ [10 x ptr] }, ptr @_ZTV16htif_hexwriter_t, i64 0, i32 0, i64 2), ptr %0, align 8
  %5 = getelementptr inbounds i8, ptr %0, i64 8
  store i64 %1, ptr %5, align 8
  %6 = getelementptr inbounds i8, ptr %0, i64 16
  store i64 %2, ptr %6, align 8
  %7 = getelementptr inbounds i8, ptr %0, i64 24
  store i64 %3, ptr %7, align 8
  %8 = getelementptr inbounds i8, ptr %0, i64 40
  store i32 0, ptr %8, align 8
  %9 = getelementptr inbounds i8, ptr %0, i64 48
  store ptr null, ptr %9, align 8
  %10 = getelementptr inbounds i8, ptr %0, i64 56
  store ptr %8, ptr %10, align 8
  %11 = getelementptr inbounds i8, ptr %0, i64 64
  store ptr %8, ptr %11, align 8
  %12 = getelementptr inbounds i8, ptr %0, i64 72
  store i64 0, ptr %12, align 8
  ret void
}